target datalayout = "e-m:e-p270:32:32-p271:32:32-p272:64:64-i64:64-i128:128-f80:128-n8:16:32:64-S128"
target triple = "x86_64-pc-linux-gnu"

%struct.BTParallelScanDescData = type { i32, i32, i32, i8, %struct.ConditionVariable, [0 x i32] }
%struct.ConditionVariable = type { i8, %struct.proclist_head }
%struct.proclist_head = type { i32, i32 }

; Function Attrs: nounwind uwtable
define dso_local void @btinitparallelscan(ptr noundef %0) #0 {
  %2 = alloca ptr, align 8
  %3 = alloca ptr, align 8
  store ptr %0, ptr %2, align 8
  call void @llvm.lifetime.start.p0(i64 8, ptr %3) #8
  %4 = load ptr, ptr %2, align 8
  store ptr %4, ptr %3, align 8
  br label %5

5:                                                ; preds = %1
  call void asm sideeffect "", "~{memory},~{dirflag},~{fpsr},~{flags}"() #8, !srcloc !9
  %6 = load ptr, ptr %3, align 8
  %7 = getelementptr inbounds nuw %struct.BTParallelScanDescData, ptr %6, i32 0, i32 3
  store i8 0, ptr %7, align 4
  br label %8

8:                                                ; preds = %5
  br label %9

9:                                                ; preds = %8
  %10 = load ptr, ptr %3, align 8
  %11 = getelementptr inbounds nuw %struct.BTParallelScanDescData, ptr %10, i32 0, i32 0
  store i32 -1, ptr %11, align 4
  %12 = load ptr, ptr %3, align 8
  %13 = getelementptr inbounds nuw %struct.BTParallelScanDescData, ptr %12, i32 0, i32 1
  store i32 -1, ptr %13, align 4
  %14 = load ptr, ptr %3, align 8
  %15 = getelementptr inbounds nuw %struct.BTParallelScanDescData, ptr %14, i32 0, i32 2
  store i32 0, ptr %15, align 4
  %16 = load ptr, ptr %3, align 8
  %17 = getelementptr inbounds nuw %struct.BTParallelScanDescData, ptr %16, i32 0, i32 4
  call void @ConditionVariableInit(ptr noundef %17)
  call void @llvm.lifetime.end.p0(i64 8, ptr %3) #8
  ret void
}