; Function Attrs: nounwind uwtable
define dso_local void @btinitparallelscan(ptr noundef initializes((0, 13)) %0) #0 {
  tail call void asm sideeffect "", "~{memory},~{dirflag},~{fpsr},~{flags}"() #8, !srcloc !9
  %2 = getelementptr inbounds nuw i8, ptr %0, i64 12
  store i8 0, ptr %2, align 4
  store i32 -1, ptr %0, align 4
  %3 = getelementptr inbounds nuw i8, ptr %0, i64 4
  store i32 -1, ptr %3, align 4
  %4 = getelementptr inbounds nuw i8, ptr %0, i64 8
  store i32 0, ptr %4, align 4
  %5 = getelementptr inbounds nuw i8, ptr %0, i64 16
  tail call void @ConditionVariableInit(ptr noundef nonnull %5) #8
  ret void
}